target datalayout = "e-m:e-p270:32:32-p271:32:32-p272:64:64-i64:64-i128:128-f80:128-n8:16:32:64-S128"
target triple = "x86_64-unknown-linux-gnu"

%"class.Imf_3_2::Attribute" = type { ptr }
%"class.Imf_3_2::TypedAttribute.0" = type { %"class.Imf_3_2::Attribute", %"class.Imath_3_2::Vec2.1" }
%"class.Imath_3_2::Vec2.1" = type { float, float }
%union.anon.10 = type { i32 }

; Function Attrs: mustprogress uwtable
define linkonce_odr hidden void @_ZN7Imf_3_28StreamIO10writeCharsERNS_7OStreamEPKci(ptr noundef nonnull align 8 dereferenceable(40) %os, ptr noundef %c, i32 noundef %n) #4 comdat align 2 {
entry:
  %os.addr = alloca ptr, align 8
  %c.addr = alloca ptr, align 8
  %n.addr = alloca i32, align 4
  store ptr %os, ptr %os.addr, align 8
  store ptr %c, ptr %c.addr, align 8
  store i32 %n, ptr %n.addr, align 4
  %0 = load ptr, ptr %os.addr, align 8
  %1 = load ptr, ptr %c.addr, align 8
  %2 = load i32, ptr %n.addr, align 4
  %vtable = load ptr, ptr %0, align 8
  %vfn = getelementptr inbounds ptr, ptr %vtable, i64 2
  %3 = load ptr, ptr %vfn, align 8
  call void %3(ptr noundef nonnull align 8 dereferenceable(40) %0, ptr noundef %1, i32 noundef %2)
  ret void
}

; Function Attrs: mustprogress uwtable
define linkonce_odr hidden void @_ZN7Imf_3_23Xdr18writeUnsignedCharsINS_8StreamIOENS_7OStreamEEEvRT0_PKhi(ptr noundef nonnull align 8 dereferenceable(40) %out, ptr noundef %c, i32 noundef %n) #4 comdat {
entry:
  %out.addr = alloca ptr, align 8
  %c.addr = alloca ptr, align 8
  %n.addr = alloca i32, align 4
  store ptr %out, ptr %out.addr, align 8
  store ptr %c, ptr %c.addr, align 8
  store i32 %n, ptr %n.addr, align 4
  %0 = load ptr, ptr %out.addr, align 8
  %1 = load ptr, ptr %c.addr, align 8
  %2 = load i32, ptr %n.addr, align 4
  call void @_ZN7Imf_3_28StreamIO10writeCharsERNS_7OStreamEPKci(ptr noundef nonnull align 8 dereferenceable(40) %0, ptr noundef %1, i32 noundef %2)
  ret void
}

; Function Attrs: mustprogress uwtable
define linkonce_odr hidden void @_ZN7Imf_3_23Xdr5writeINS_8StreamIOENS_7OStreamEEEvRT0_f(ptr noundef nonnull align 8 dereferenceable(40) %out, float noundef %v) #4 comdat {
entry:
  %out.addr = alloca ptr, align 8
  %v.addr = alloca float, align 4
  %u = alloca %union.anon.10, align 4
  %b = alloca [4 x i8], align 1
  store ptr %out, ptr %out.addr, align 8
  store float %v, ptr %v.addr, align 4
  %0 = load float, ptr %v.addr, align 4
  store float %0, ptr %u, align 4
  %1 = load i32, ptr %u, align 4
  %conv = trunc i32 %1 to i8
  %arrayidx = getelementptr inbounds [4 x i8], ptr %b, i64 0, i64 0
  store i8 %conv, ptr %arrayidx, align 1
  %2 = load i32, ptr %u, align 4
  %shr = lshr i32 %2, 8
  %conv1 = trunc i32 %shr to i8
  %arrayidx2 = getelementptr inbounds [4 x i8], ptr %b, i64 0, i64 1
  store i8 %conv1, ptr %arrayidx2, align 1
  %3 = load i32, ptr %u, align 4
  %shr3 = lshr i32 %3, 16
  %conv4 = trunc i32 %shr3 to i8
  %arrayidx5 = getelementptr inbounds [4 x i8], ptr %b, i64 0, i64 2
  store i8 %conv4, ptr %arrayidx5, align 1
  %4 = load i32, ptr %u, align 4
  %shr6 = lshr i32 %4, 24
  %conv7 = trunc i32 %shr6 to i8
  %arrayidx8 = getelementptr inbounds [4 x i8], ptr %b, i64 0, i64 3
  store i8 %conv7, ptr %arrayidx8, align 1
  %5 = load ptr, ptr %out.addr, align 8
  %arraydecay = getelementptr inbounds [4 x i8], ptr %b, i64 0, i64 0
  call void @_ZN7Imf_3_23Xdr18writeUnsignedCharsINS_8StreamIOENS_7OStreamEEEvRT0_PKhi(ptr noundef nonnull align 8 dereferenceable(40) %5, ptr noundef %arraydecay, i32 noundef 4)
  ret void
}

; Function Attrs: mustprogress uwtable
define void @_ZNK7Imf_3_214TypedAttributeIN9Imath_3_24Vec2IfEEE12writeValueToERNS_7OStreamEi(ptr noundef nonnull align 8 dereferenceable(16) %this, ptr noundef nonnull align 8 dereferenceable(40) %os, i32 noundef %version) unnamed_addr #4 align 2 {
entry:
  %this.addr = alloca ptr, align 8
  %os.addr = alloca ptr, align 8
  %version.addr = alloca i32, align 4
  store ptr %this, ptr %this.addr, align 8
  store ptr %os, ptr %os.addr, align 8
  store i32 %version, ptr %version.addr, align 4
  %this1 = load ptr, ptr %this.addr, align 8
  %0 = load ptr, ptr %os.addr, align 8
  %_value = getelementptr inbounds %"class.Imf_3_2::TypedAttribute.0", ptr %this1, i32 0, i32 1
  %x = getelementptr inbounds %"class.Imath_3_2::Vec2.1", ptr %_value, i32 0, i32 0
  %1 = load float, ptr %x, align 8
  call void @_ZN7Imf_3_23Xdr5writeINS_8StreamIOENS_7OStreamEEEvRT0_f(ptr noundef nonnull align 8 dereferenceable(40) %0, float noundef %1)
  %2 = load ptr, ptr %os.addr, align 8
  %_value2 = getelementptr inbounds %"class.Imf_3_2::TypedAttribute.0", ptr %this1, i32 0, i32 1
  %y = getelementptr inbounds %"class.Imath_3_2::Vec2.1", ptr %_value2, i32 0, i32 1
  %3 = load float, ptr %y, align 4
  call void @_ZN7Imf_3_23Xdr5writeINS_8StreamIOENS_7OStreamEEEvRT0_f(ptr noundef nonnull align 8 dereferenceable(40) %2, float noundef %3)
  ret void
}