; Function Attrs: mustprogress uwtable
define void @_ZNK7Imf_3_214TypedAttributeIN9Imath_3_24Vec2IfEEE12writeValueToERNS_7OStreamEi(ptr nocapture noundef nonnull readonly align 8 dereferenceable(16) %this, ptr noundef nonnull align 8 dereferenceable(40) %os, i32 %version) unnamed_addr #3 align 2 {
entry:
  %b.i2 = alloca [4 x i8], align 1
  %b.i = alloca [4 x i8], align 1
  %_value = getelementptr inbounds i8, ptr %this, i64 8
  %0 = load i32, ptr %_value, align 8
  call void @llvm.lifetime.start.p0(i64 4, ptr nonnull %b.i)
  %conv.i = trunc i32 %0 to i8
  store i8 %conv.i, ptr %b.i, align 1
  %shr.i = lshr i32 %0, 8
  %conv1.i = trunc i32 %shr.i to i8
  %arrayidx2.i = getelementptr inbounds i8, ptr %b.i, i64 1
  store i8 %conv1.i, ptr %arrayidx2.i, align 1
  %shr3.i = lshr i32 %0, 16
  %conv4.i = trunc i32 %shr3.i to i8
  %arrayidx5.i = getelementptr inbounds i8, ptr %b.i, i64 2
  store i8 %conv4.i, ptr %arrayidx5.i, align 1
  %shr6.i = lshr i32 %0, 24
  %conv7.i = trunc i32 %shr6.i to i8
  %arrayidx8.i = getelementptr inbounds i8, ptr %b.i, i64 3
  store i8 %conv7.i, ptr %arrayidx8.i, align 1
  %vtable.i.i.i = load ptr, ptr %os, align 8
  %vfn.i.i.i = getelementptr inbounds i8, ptr %vtable.i.i.i, i64 16
  %1 = load ptr, ptr %vfn.i.i.i, align 8
  call void %1(ptr noundef nonnull align 8 dereferenceable(40) %os, ptr noundef nonnull %b.i, i32 noundef 4)
  call void @llvm.lifetime.end.p0(i64 4, ptr nonnull %b.i)
  %y = getelementptr inbounds i8, ptr %this, i64 12
  %2 = load i32, ptr %y, align 4
  call void @llvm.lifetime.start.p0(i64 4, ptr nonnull %b.i2)
  %conv.i3 = trunc i32 %2 to i8
  store i8 %conv.i3, ptr %b.i2, align 1
  %shr.i4 = lshr i32 %2, 8
  %conv1.i5 = trunc i32 %shr.i4 to i8
  %arrayidx2.i6 = getelementptr inbounds i8, ptr %b.i2, i64 1
  store i8 %conv1.i5, ptr %arrayidx2.i6, align 1
  %shr3.i7 = lshr i32 %2, 16
  %conv4.i8 = trunc i32 %shr3.i7 to i8
  %arrayidx5.i9 = getelementptr inbounds i8, ptr %b.i2, i64 2
  store i8 %conv4.i8, ptr %arrayidx5.i9, align 1
  %shr6.i10 = lshr i32 %2, 24
  %conv7.i11 = trunc i32 %shr6.i10 to i8
  %arrayidx8.i12 = getelementptr inbounds i8, ptr %b.i2, i64 3
  store i8 %conv7.i11, ptr %arrayidx8.i12, align 1
  %vtable.i.i.i13 = load ptr, ptr %os, align 8
  %vfn.i.i.i14 = getelementptr inbounds i8, ptr %vtable.i.i.i13, i64 16
  %3 = load ptr, ptr %vfn.i.i.i14, align 8
  call void %3(ptr noundef nonnull align 8 dereferenceable(40) %os, ptr noundef nonnull %b.i2, i32 noundef 4)
  call void @llvm.lifetime.end.p0(i64 4, ptr nonnull %b.i2)
  ret void
}